target datalayout = "e-m:e-p270:32:32-p271:32:32-p272:64:64-i64:64-i128:128-f80:128-n8:16:32:64-S128"
target triple = "x86_64-pc-linux-gnu"

%struct.H5O_shared_t = type { i32, ptr, i32, %union.anon }
%union.anon = type { %struct.H5O_mesg_loc_t }
%struct.H5O_mesg_loc_t = type { i32, i64 }
%struct.H5O_pline_t = type { %struct.H5O_shared_t, i32, i64, i64, ptr }
%struct.H5Z_filter_info_t = type { i32, i32, [12 x i8], ptr, i64, [4 x i32], ptr }

@.str.4 = private unnamed_addr constant [103 x i8] c"generated/home/dtcxzyw/WorkSpace/Projects/compilers/llvm-opt-benchmark/bench/hdf5/hdf5/src/H5Oshared.h\00", align 1
@H5E_OHDR_g = external global i64, align 8
@H5E_WRITEERROR_g = external global i64, align 8
@__func__.H5O__pline_shared_debug = private unnamed_addr constant [24 x i8] c"H5O__pline_shared_debug\00", align 1
@.str.24 = private unnamed_addr constant [38 x i8] c"unable to display shared message info\00", align 1
@.str.25 = private unnamed_addr constant [38 x i8] c"unable to display native message info\00", align 1
@.str.26 = private unnamed_addr constant [17 x i8] c"%*s%-*s %zu/%zu\0A\00", align 1
@.str.27 = private unnamed_addr constant [1 x i8] zeroinitializer, align 1
@.str.28 = private unnamed_addr constant [19 x i8] c"Number of filters:\00", align 1
@.str.29 = private unnamed_addr constant [23 x i8] c"Filter at position %zu\00", align 1
@.str.30 = private unnamed_addr constant [9 x i8] c"%*s%-*s\0A\00", align 1
@.str.31 = private unnamed_addr constant [16 x i8] c"%*s%-*s 0x%04x\0A\00", align 1
@.str.32 = private unnamed_addr constant [23 x i8] c"Filter identification:\00", align 1
@.str.33 = private unnamed_addr constant [14 x i8] c"%*s%-*s \22%s\22\0A\00", align 1
@.str.34 = private unnamed_addr constant [13 x i8] c"Filter name:\00", align 1
@.str.35 = private unnamed_addr constant [14 x i8] c"%*s%-*s NONE\0A\00", align 1
@.str.36 = private unnamed_addr constant [7 x i8] c"Flags:\00", align 1
@.str.37 = private unnamed_addr constant [13 x i8] c"%*s%-*s %zu\0A\00", align 1
@.str.38 = private unnamed_addr constant [15 x i8] c"Num CD values:\00", align 1
@.str.39 = private unnamed_addr constant [13 x i8] c"CD value %lu\00", align 1
@.str.40 = private unnamed_addr constant [12 x i8] c"%*s%-*s %u\0A\00", align 1

; Function Attrs: nounwind uwtable
define internal i32 @H5O__pline_debug(ptr noundef %0, ptr noundef %1, ptr noundef %2, i32 noundef %3, i32 noundef %4) #0 {
  %6 = alloca ptr, align 8
  %7 = alloca ptr, align 8
  %8 = alloca ptr, align 8
  %9 = alloca i32, align 4
  %10 = alloca i32, align 4
  %11 = alloca ptr, align 8
  %12 = alloca i64, align 8
  %13 = alloca [64 x i8], align 16
  %14 = alloca i64, align 8
  %15 = alloca [32 x i8], align 16
  store ptr %0, ptr %6, align 8
  store ptr %1, ptr %7, align 8
  store ptr %2, ptr %8, align 8
  store i32 %3, ptr %9, align 4
  store i32 %4, ptr %10, align 4
  %16 = load ptr, ptr %7, align 8
  store ptr %16, ptr %11, align 8
  %17 = load ptr, ptr %8, align 8
  %18 = load i32, ptr %9, align 4
  %19 = load i32, ptr %10, align 4
  %20 = load ptr, ptr %11, align 8
  %21 = getelementptr inbounds %struct.H5O_pline_t, ptr %20, i32 0, i32 3
  %22 = load i64, ptr %21, align 8
  %23 = load ptr, ptr %11, align 8
  %24 = getelementptr inbounds %struct.H5O_pline_t, ptr %23, i32 0, i32 2
  %25 = load i64, ptr %24, align 8
  %26 = call i32 (ptr, ptr, ...) @fprintf(ptr noundef %17, ptr noundef @.str.26, i32 noundef %18, ptr noundef @.str.27, i32 noundef %19, ptr noundef @.str.28, i64 noundef %22, i64 noundef %25) #11
  store i64 0, ptr %12, align 8
  br label %27

27:                                               ; preds = %189, %5
  %28 = load i64, ptr %12, align 8
  %29 = load ptr, ptr %11, align 8
  %30 = getelementptr inbounds %struct.H5O_pline_t, ptr %29, i32 0, i32 3
  %31 = load i64, ptr %30, align 8
  %32 = icmp ult i64 %28, %31
  br i1 %32, label %33, label %192

33:                                               ; preds = %27
  %34 = getelementptr inbounds [64 x i8], ptr %13, i64 0, i64 0
  call void @llvm.memset.p0.i64(ptr align 16 %34, i8 0, i64 64, i1 false)
  %35 = getelementptr inbounds [64 x i8], ptr %13, i64 0, i64 0
  %36 = load i64, ptr %12, align 8
  %37 = call i32 (ptr, i64, ptr, ...) @snprintf(ptr noundef %35, i64 noundef 64, ptr noundef @.str.29, i64 noundef %36) #11
  %38 = load ptr, ptr %8, align 8
  %39 = load i32, ptr %9, align 4
  %40 = load i32, ptr %10, align 4
  %41 = getelementptr inbounds [64 x i8], ptr %13, i64 0, i64 0
  %42 = call i32 (ptr, ptr, ...) @fprintf(ptr noundef %38, ptr noundef @.str.30, i32 noundef %39, ptr noundef @.str.27, i32 noundef %40, ptr noundef %41) #11
  %43 = load ptr, ptr %8, align 8
  %44 = load i32, ptr %9, align 4
  %45 = add nsw i32 %44, 3
  %46 = load i32, ptr %10, align 4
  %47 = sub nsw i32 %46, 3
  %48 = icmp sgt i32 0, %47
  br i1 %48, label %49, label %50

49:                                               ; preds = %33
  br label %53

50:                                               ; preds = %33
  %51 = load i32, ptr %10, align 4
  %52 = sub nsw i32 %51, 3
  br label %53

53:                                               ; preds = %50, %49
  %54 = phi i32 [ 0, %49 ], [ %52, %50 ]
  %55 = load ptr, ptr %11, align 8
  %56 = getelementptr inbounds %struct.H5O_pline_t, ptr %55, i32 0, i32 4
  %57 = load ptr, ptr %56, align 8
  %58 = load i64, ptr %12, align 8
  %59 = getelementptr inbounds %struct.H5Z_filter_info_t, ptr %57, i64 %58
  %60 = getelementptr inbounds %struct.H5Z_filter_info_t, ptr %59, i32 0, i32 0
  %61 = load i32, ptr %60, align 8
  %62 = call i32 (ptr, ptr, ...) @fprintf(ptr noundef %43, ptr noundef @.str.31, i32 noundef %45, ptr noundef @.str.27, i32 noundef %54, ptr noundef @.str.32, i32 noundef %61) #11
  %63 = load ptr, ptr %11, align 8
  %64 = getelementptr inbounds %struct.H5O_pline_t, ptr %63, i32 0, i32 4
  %65 = load ptr, ptr %64, align 8
  %66 = load i64, ptr %12, align 8
  %67 = getelementptr inbounds %struct.H5Z_filter_info_t, ptr %65, i64 %66
  %68 = getelementptr inbounds %struct.H5Z_filter_info_t, ptr %67, i32 0, i32 3
  %69 = load ptr, ptr %68, align 8
  %70 = icmp ne ptr %69, null
  br i1 %70, label %71, label %92

71:                                               ; preds = %53
  %72 = load ptr, ptr %8, align 8
  %73 = load i32, ptr %9, align 4
  %74 = add nsw i32 %73, 3
  %75 = load i32, ptr %10, align 4
  %76 = sub nsw i32 %75, 3
  %77 = icmp sgt i32 0, %76
  br i1 %77, label %78, label %79

78:                                               ; preds = %71
  br label %82

79:                                               ; preds = %71
  %80 = load i32, ptr %10, align 4
  %81 = sub nsw i32 %80, 3
  br label %82

82:                                               ; preds = %79, %78
  %83 = phi i32 [ 0, %78 ], [ %81, %79 ]
  %84 = load ptr, ptr %11, align 8
  %85 = getelementptr inbounds %struct.H5O_pline_t, ptr %84, i32 0, i32 4
  %86 = load ptr, ptr %85, align 8
  %87 = load i64, ptr %12, align 8
  %88 = getelementptr inbounds %struct.H5Z_filter_info_t, ptr %86, i64 %87
  %89 = getelementptr inbounds %struct.H5Z_filter_info_t, ptr %88, i32 0, i32 3
  %90 = load ptr, ptr %89, align 8
  %91 = call i32 (ptr, ptr, ...) @fprintf(ptr noundef %72, ptr noundef @.str.33, i32 noundef %74, ptr noundef @.str.27, i32 noundef %83, ptr noundef @.str.34, ptr noundef %90) #11
  br label %106

92:                                               ; preds = %53
  %93 = load ptr, ptr %8, align 8
  %94 = load i32, ptr %9, align 4
  %95 = add nsw i32 %94, 3
  %96 = load i32, ptr %10, align 4
  %97 = sub nsw i32 %96, 3
  %98 = icmp sgt i32 0, %97
  br i1 %98, label %99, label %100

99:                                               ; preds = %92
  br label %103

100:                                              ; preds = %92
  %101 = load i32, ptr %10, align 4
  %102 = sub nsw i32 %101, 3
  br label %103

103:                                              ; preds = %100, %99
  %104 = phi i32 [ 0, %99 ], [ %102, %100 ]
  %105 = call i32 (ptr, ptr, ...) @fprintf(ptr noundef %93, ptr noundef @.str.35, i32 noundef %95, ptr noundef @.str.27, i32 noundef %104, ptr noundef @.str.34) #11
  br label %106

106:                                              ; preds = %103, %82
  %107 = load ptr, ptr %8, align 8
  %108 = load i32, ptr %9, align 4
  %109 = add nsw i32 %108, 3
  %110 = load i32, ptr %10, align 4
  %111 = sub nsw i32 %110, 3
  %112 = icmp sgt i32 0, %111
  br i1 %112, label %113, label %114

113:                                              ; preds = %106
  br label %117

114:                                              ; preds = %106
  %115 = load i32, ptr %10, align 4
  %116 = sub nsw i32 %115, 3
  br label %117

117:                                              ; preds = %114, %113
  %118 = phi i32 [ 0, %113 ], [ %116, %114 ]
  %119 = load ptr, ptr %11, align 8
  %120 = getelementptr inbounds %struct.H5O_pline_t, ptr %119, i32 0, i32 4
  %121 = load ptr, ptr %120, align 8
  %122 = load i64, ptr %12, align 8
  %123 = getelementptr inbounds %struct.H5Z_filter_info_t, ptr %121, i64 %122
  %124 = getelementptr inbounds %struct.H5Z_filter_info_t, ptr %123, i32 0, i32 1
  %125 = load i32, ptr %124, align 4
  %126 = call i32 (ptr, ptr, ...) @fprintf(ptr noundef %107, ptr noundef @.str.31, i32 noundef %109, ptr noundef @.str.27, i32 noundef %118, ptr noundef @.str.36, i32 noundef %125) #11
  %127 = load ptr, ptr %8, align 8
  %128 = load i32, ptr %9, align 4
  %129 = add nsw i32 %128, 3
  %130 = load i32, ptr %10, align 4
  %131 = sub nsw i32 %130, 3
  %132 = icmp sgt i32 0, %131
  br i1 %132, label %133, label %134

133:                                              ; preds = %117
  br label %137

134:                                              ; preds = %117
  %135 = load i32, ptr %10, align 4
  %136 = sub nsw i32 %135, 3
  br label %137

137:                                              ; preds = %134, %133
  %138 = phi i32 [ 0, %133 ], [ %136, %134 ]
  %139 = load ptr, ptr %11, align 8
  %140 = getelementptr inbounds %struct.H5O_pline_t, ptr %139, i32 0, i32 4
  %141 = load ptr, ptr %140, align 8
  %142 = load i64, ptr %12, align 8
  %143 = getelementptr inbounds %struct.H5Z_filter_info_t, ptr %141, i64 %142
  %144 = getelementptr inbounds %struct.H5Z_filter_info_t, ptr %143, i32 0, i32 4
  %145 = load i64, ptr %144, align 8
  %146 = call i32 (ptr, ptr, ...) @fprintf(ptr noundef %127, ptr noundef @.str.37, i32 noundef %129, ptr noundef @.str.27, i32 noundef %138, ptr noundef @.str.38, i64 noundef %145) #11
  store i64 0, ptr %14, align 8
  br label %147

147:                                              ; preds = %185, %137
  %148 = load i64, ptr %14, align 8
  %149 = load ptr, ptr %11, align 8
  %150 = getelementptr inbounds %struct.H5O_pline_t, ptr %149, i32 0, i32 4
  %151 = load ptr, ptr %150, align 8
  %152 = load i64, ptr %12, align 8
  %153 = getelementptr inbounds %struct.H5Z_filter_info_t, ptr %151, i64 %152
  %154 = getelementptr inbounds %struct.H5Z_filter_info_t, ptr %153, i32 0, i32 4
  %155 = load i64, ptr %154, align 8
  %156 = icmp ult i64 %148, %155
  br i1 %156, label %157, label %188

157:                                              ; preds = %147
  %158 = getelementptr inbounds [32 x i8], ptr %15, i64 0, i64 0
  %159 = load i64, ptr %14, align 8
  %160 = call i32 (ptr, i64, ptr, ...) @snprintf(ptr noundef %158, i64 noundef 32, ptr noundef @.str.39, i64 noundef %159) #11
  %161 = load ptr, ptr %8, align 8
  %162 = load i32, ptr %9, align 4
  %163 = add nsw i32 %162, 6
  %164 = load i32, ptr %10, align 4
  %165 = sub nsw i32 %164, 6
  %166 = icmp sgt i32 0, %165
  br i1 %166, label %167, label %168

167:                                              ; preds = %157
  br label %171

168:                                              ; preds = %157
  %169 = load i32, ptr %10, align 4
  %170 = sub nsw i32 %169, 6
  br label %171

171:                                              ; preds = %168, %167
  %172 = phi i32 [ 0, %167 ], [ %170, %168 ]
  %173 = getelementptr inbounds [32 x i8], ptr %15, i64 0, i64 0
  %174 = load ptr, ptr %11, align 8
  %175 = getelementptr inbounds %struct.H5O_pline_t, ptr %174, i32 0, i32 4
  %176 = load ptr, ptr %175, align 8
  %177 = load i64, ptr %12, align 8
  %178 = getelementptr inbounds %struct.H5Z_filter_info_t, ptr %176, i64 %177
  %179 = getelementptr inbounds %struct.H5Z_filter_info_t, ptr %178, i32 0, i32 6
  %180 = load ptr, ptr %179, align 8
  %181 = load i64, ptr %14, align 8
  %182 = getelementptr inbounds i32, ptr %180, i64 %181
  %183 = load i32, ptr %182, align 4
  %184 = call i32 (ptr, ptr, ...) @fprintf(ptr noundef %161, ptr noundef @.str.40, i32 noundef %163, ptr noundef @.str.27, i32 noundef %172, ptr noundef %173, i32 noundef %183) #11
  br label %185

185:                                              ; preds = %171
  %186 = load i64, ptr %14, align 8
  %187 = add i64 %186, 1
  store i64 %187, ptr %14, align 8
  br label %147

188:                                              ; preds = %147
  br label %189

189:                                              ; preds = %188
  %190 = load i64, ptr %12, align 8
  %191 = add i64 %190, 1
  store i64 %191, ptr %12, align 8
  br label %27

192:                                              ; preds = %27
  ret i32 0
}

; Function Attrs: nounwind uwtable
define internal i32 @H5O__pline_shared_debug(ptr noundef %0, ptr noundef %1, ptr noundef %2, i32 noundef %3, i32 noundef %4) #0 {
  %6 = alloca ptr, align 8
  %7 = alloca ptr, align 8
  %8 = alloca ptr, align 8
  %9 = alloca i32, align 4
  %10 = alloca i32, align 4
  %11 = alloca ptr, align 8
  %12 = alloca i32, align 4
  %13 = alloca i8, align 1
  store ptr %0, ptr %6, align 8
  store ptr %1, ptr %7, align 8
  store ptr %2, ptr %8, align 8
  store i32 %3, ptr %9, align 4
  store i32 %4, ptr %10, align 4
  %14 = load ptr, ptr %7, align 8
  store ptr %14, ptr %11, align 8
  store i32 0, ptr %12, align 4
  store i8 0, ptr %13, align 1
  %15 = load ptr, ptr %11, align 8
  %16 = getelementptr inbounds %struct.H5O_shared_t, ptr %15, i32 0, i32 0
  %17 = load i32, ptr %16, align 8
  %18 = icmp eq i32 %17, 1
  br i1 %18, label %24, label %19

19:                                               ; preds = %5
  %20 = load ptr, ptr %11, align 8
  %21 = getelementptr inbounds %struct.H5O_shared_t, ptr %20, i32 0, i32 0
  %22 = load i32, ptr %21, align 8
  %23 = icmp eq i32 %22, 2
  br i1 %23, label %24, label %25

24:                                               ; preds = %19, %5
  br i1 true, label %26, label %49

25:                                               ; preds = %19
  br i1 false, label %26, label %49

26:                                               ; preds = %25, %24
  %27 = load ptr, ptr %11, align 8
  %28 = load ptr, ptr %8, align 8
  %29 = load i32, ptr %9, align 4
  %30 = load i32, ptr %10, align 4
  %31 = call i32 @H5O__shared_debug(ptr noundef %27, ptr noundef %28, i32 noundef %29, i32 noundef %30)
  %32 = icmp slt i32 %31, 0
  br i1 %32, label %33, label %48

33:                                               ; preds = %26
  br label %34

34:                                               ; preds = %33
  br label %35

35:                                               ; preds = %34
  br label %36

36:                                               ; preds = %35
  %37 = load i64, ptr @H5E_OHDR_g, align 8
  %38 = load i64, ptr @H5E_WRITEERROR_g, align 8
  %39 = call i32 (ptr, ptr, i32, i64, i64, ptr, ...) @H5E_printf_stack(ptr noundef @.str.4, ptr noundef @__func__.H5O__pline_shared_debug, i32 noundef 428, i64 noundef %37, i64 noundef %38, ptr noundef @.str.24)
  br label %40

40:                                               ; preds = %36
  store i8 1, ptr %13, align 1
  %41 = load i8, ptr %13, align 1
  %42 = trunc i8 %41 to i1
  %43 = zext i1 %42 to i8
  store i8 %43, ptr %13, align 1
  br label %44

44:                                               ; preds = %40
  br label %45

45:                                               ; preds = %44
  store i32 -1, ptr %12, align 4
  br label %73

46:                                               ; No predecessors!
  br label %47

47:                                               ; preds = %46
  br label %48

48:                                               ; preds = %47, %26
  br label %49

49:                                               ; preds = %48, %25, %24
  %50 = load ptr, ptr %6, align 8
  %51 = load ptr, ptr %7, align 8
  %52 = load ptr, ptr %8, align 8
  %53 = load i32, ptr %9, align 4
  %54 = load i32, ptr %10, align 4
  %55 = call i32 @H5O__pline_debug(ptr noundef %50, ptr noundef %51, ptr noundef %52, i32 noundef %53, i32 noundef %54)
  %56 = icmp slt i32 %55, 0
  br i1 %56, label %57, label %72

57:                                               ; preds = %49
  br label %58

58:                                               ; preds = %57
  br label %59

59:                                               ; preds = %58
  br label %60

60:                                               ; preds = %59
  %61 = load i64, ptr @H5E_OHDR_g, align 8
  %62 = load i64, ptr @H5E_WRITEERROR_g, align 8
  %63 = call i32 (ptr, ptr, i32, i64, i64, ptr, ...) @H5E_printf_stack(ptr noundef @.str.4, ptr noundef @__func__.H5O__pline_shared_debug, i32 noundef 433, i64 noundef %61, i64 noundef %62, ptr noundef @.str.25)
  br label %64

64:                                               ; preds = %60
  store i8 1, ptr %13, align 1
  %65 = load i8, ptr %13, align 1
  %66 = trunc i8 %65 to i1
  %67 = zext i1 %66 to i8
  store i8 %67, ptr %13, align 1
  br label %68

68:                                               ; preds = %64
  br label %69

69:                                               ; preds = %68
  store i32 -1, ptr %12, align 4
  br label %73

70:                                               ; No predecessors!
  br label %71

71:                                               ; preds = %70
  br label %72

72:                                               ; preds = %71, %49
  br label %73

73:                                               ; preds = %72, %69, %45
  %74 = load i32, ptr %12, align 4
  ret i32 %74
}