; Function Attrs: nounwind uwtable
define internal range(i32 -1, 1) i32 @H5O__pline_shared_debug(ptr nocapture readnone %0, ptr noundef %1, ptr noundef %2, i32 noundef %3, i32 noundef %4) #0 {
  %6 = alloca [64 x i8], align 16
  %7 = alloca [32 x i8], align 16
  %8 = load i32, ptr %1, align 8
  %.off = add i32 %8, -1
  %switch = icmp ult i32 %.off, 2
  br i1 %switch, label %9, label %16

9:                                                ; preds = %5
  %10 = tail call i32 @H5O__shared_debug(ptr noundef nonnull %1, ptr noundef %2, i32 noundef %3, i32 noundef %4) #11
  %11 = icmp slt i32 %10, 0
  br i1 %11, label %12, label %16

12:                                               ; preds = %9
  %13 = load i64, ptr @H5E_OHDR_g, align 8
  %14 = load i64, ptr @H5E_WRITEERROR_g, align 8
  %15 = tail call i32 (ptr, ptr, i32, i64, i64, ptr, ...) @H5E_printf_stack(ptr noundef nonnull @.str.4, ptr noundef nonnull @__func__.H5O__pline_shared_debug, i32 noundef 428, i64 noundef %13, i64 noundef %14, ptr noundef nonnull @.str.24) #11
  br label %71

16:                                               ; preds = %5, %9
  call void @llvm.lifetime.start.p0(i64 64, ptr nonnull %6)
  call void @llvm.lifetime.start.p0(i64 32, ptr nonnull %7)
  %17 = getelementptr inbounds i8, ptr %1, i64 56
  %18 = load i64, ptr %17, align 8
  %19 = getelementptr inbounds i8, ptr %1, i64 48
  %20 = load i64, ptr %19, align 8
  %21 = tail call i32 (ptr, ptr, ...) @fprintf(ptr noundef %2, ptr noundef nonnull @.str.26, i32 noundef %3, ptr noundef nonnull @.str.27, i32 noundef %4, ptr noundef nonnull @.str.28, i64 noundef %18, i64 noundef %20) #11
  %22 = load i64, ptr %17, align 8
  %.not6.i = icmp eq i64 %22, 0
  br i1 %.not6.i, label %H5O__pline_debug.exit, label %.lr.ph4.i

.lr.ph4.i:                                        ; preds = %16
  %23 = add nsw i32 %3, 3
  %24 = tail call i32 @llvm.smax.i32(i32 %4, i32 3)
  %25 = add nsw i32 %24, -3
  %26 = getelementptr inbounds i8, ptr %1, i64 64
  %27 = add nsw i32 %3, 6
  %28 = tail call i32 @llvm.smax.i32(i32 %4, i32 6)
  %29 = add nsw i32 %28, -6
  br label %30

30:                                               ; preds = %._crit_edge.i, %.lr.ph4.i
  %.0542.i = phi i64 [ 0, %.lr.ph4.i ], [ %68, %._crit_edge.i ]
  call void @llvm.memset.p0.i64(ptr noundef nonnull align 16 dereferenceable(64) %6, i8 0, i64 64, i1 false)
  %31 = call i32 (ptr, i64, ptr, ...) @snprintf(ptr noundef nonnull dereferenceable(1) %6, i64 noundef 64, ptr noundef nonnull @.str.29, i64 noundef %.0542.i) #11
  %32 = call i32 (ptr, ptr, ...) @fprintf(ptr noundef %2, ptr noundef nonnull @.str.30, i32 noundef %3, ptr noundef nonnull @.str.27, i32 noundef %4, ptr noundef nonnull %6) #11
  %33 = load ptr, ptr %26, align 8
  %34 = getelementptr inbounds %struct.H5Z_filter_info_t, ptr %33, i64 %.0542.i
  %35 = load i32, ptr %34, align 8
  %36 = call i32 (ptr, ptr, ...) @fprintf(ptr noundef %2, ptr noundef nonnull @.str.31, i32 noundef %23, ptr noundef nonnull @.str.27, i32 noundef %25, ptr noundef nonnull @.str.32, i32 noundef %35) #11
  %37 = load ptr, ptr %26, align 8
  %38 = getelementptr inbounds %struct.H5Z_filter_info_t, ptr %37, i64 %.0542.i, i32 3
  %39 = load ptr, ptr %38, align 8
  %.not.i = icmp eq ptr %39, null
  br i1 %.not.i, label %42, label %40

40:                                               ; preds = %30
  %41 = call i32 (ptr, ptr, ...) @fprintf(ptr noundef %2, ptr noundef nonnull @.str.33, i32 noundef %23, ptr noundef nonnull @.str.27, i32 noundef %25, ptr noundef nonnull @.str.34, ptr noundef nonnull %39) #11
  br label %44

42:                                               ; preds = %30
  %43 = call i32 (ptr, ptr, ...) @fprintf(ptr noundef %2, ptr noundef nonnull @.str.35, i32 noundef %23, ptr noundef nonnull @.str.27, i32 noundef %25, ptr noundef nonnull @.str.34) #11
  br label %44

44:                                               ; preds = %42, %40
  %45 = load ptr, ptr %26, align 8
  %46 = getelementptr inbounds %struct.H5Z_filter_info_t, ptr %45, i64 %.0542.i, i32 1
  %47 = load i32, ptr %46, align 4
  %48 = call i32 (ptr, ptr, ...) @fprintf(ptr noundef %2, ptr noundef nonnull @.str.31, i32 noundef %23, ptr noundef nonnull @.str.27, i32 noundef %25, ptr noundef nonnull @.str.36, i32 noundef %47) #11
  %49 = load ptr, ptr %26, align 8
  %50 = getelementptr inbounds %struct.H5Z_filter_info_t, ptr %49, i64 %.0542.i, i32 4
  %51 = load i64, ptr %50, align 8
  %52 = call i32 (ptr, ptr, ...) @fprintf(ptr noundef %2, ptr noundef nonnull @.str.37, i32 noundef %23, ptr noundef nonnull @.str.27, i32 noundef %25, ptr noundef nonnull @.str.38, i64 noundef %51) #11
  %53 = load ptr, ptr %26, align 8
  %54 = getelementptr inbounds %struct.H5Z_filter_info_t, ptr %53, i64 %.0542.i, i32 4
  %55 = load i64, ptr %54, align 8
  %.not7.i = icmp eq i64 %55, 0
  br i1 %.not7.i, label %._crit_edge.i, label %.lr.ph.i

.lr.ph.i:                                         ; preds = %44, %.lr.ph.i
  %.01.i = phi i64 [ %63, %.lr.ph.i ], [ 0, %44 ]
  %56 = call i32 (ptr, i64, ptr, ...) @snprintf(ptr noundef nonnull dereferenceable(1) %7, i64 noundef 32, ptr noundef nonnull @.str.39, i64 noundef %.01.i) #11
  %57 = load ptr, ptr %26, align 8
  %58 = getelementptr inbounds %struct.H5Z_filter_info_t, ptr %57, i64 %.0542.i, i32 6
  %59 = load ptr, ptr %58, align 8
  %60 = getelementptr inbounds i32, ptr %59, i64 %.01.i
  %61 = load i32, ptr %60, align 4
  %62 = call i32 (ptr, ptr, ...) @fprintf(ptr noundef %2, ptr noundef nonnull @.str.40, i32 noundef %27, ptr noundef nonnull @.str.27, i32 noundef %29, ptr noundef nonnull %7, i32 noundef %61) #11
  %63 = add nuw i64 %.01.i, 1
  %64 = load ptr, ptr %26, align 8
  %65 = getelementptr inbounds %struct.H5Z_filter_info_t, ptr %64, i64 %.0542.i, i32 4
  %66 = load i64, ptr %65, align 8
  %67 = icmp ult i64 %63, %66
  br i1 %67, label %.lr.ph.i, label %._crit_edge.i

._crit_edge.i:                                    ; preds = %.lr.ph.i, %44
  %68 = add nuw i64 %.0542.i, 1
  %69 = load i64, ptr %17, align 8
  %70 = icmp ult i64 %68, %69
  br i1 %70, label %30, label %H5O__pline_debug.exit

H5O__pline_debug.exit:                            ; preds = %._crit_edge.i, %16
  call void @llvm.lifetime.end.p0(i64 64, ptr nonnull %6)
  call void @llvm.lifetime.end.p0(i64 32, ptr nonnull %7)
  br label %71

71:                                               ; preds = %H5O__pline_debug.exit, %12
  %.0 = phi i32 [ -1, %12 ], [ 0, %H5O__pline_debug.exit ]
  ret i32 %.0
}